target datalayout = "e-m:e-p270:32:32-p271:32:32-p272:64:64-i64:64-i128:128-f80:128-n8:16:32:64-S128"
target triple = "x86_64-pc-linux-gnu"

%struct.mbedtls_ecp_group = type { i32, %struct.mbedtls_mpi, %struct.mbedtls_mpi, %struct.mbedtls_mpi, %struct.mbedtls_ecp_point, %struct.mbedtls_mpi, i64, i64, i32, ptr, ptr, ptr, ptr, ptr, i64 }
%struct.mbedtls_ecp_point = type { %struct.mbedtls_mpi, %struct.mbedtls_mpi, %struct.mbedtls_mpi }
%struct.mbedtls_mpi = type { ptr, i16, i16 }

@mul_count = internal global i64 0, align 8
@dbl_count = internal global i64 0, align 8
@add_count = internal global i64 0, align 8
@.str.32 = private unnamed_addr constant [13 x i8] c"failed (%u)\0A\00", align 1
@.str.33 = private unnamed_addr constant [8 x i8] c"passed\0A\00", align 1

; Function Attrs: nounwind uwtable
define hidden i32 @mbedtls_ecp_mul_restartable(ptr noundef %0, ptr noundef %1, ptr noundef %2, ptr noundef %3, ptr noundef %4, ptr noundef %5, ptr noundef %6) #0 {
  %8 = alloca i32, align 4
  %9 = alloca ptr, align 8
  %10 = alloca ptr, align 8
  %11 = alloca ptr, align 8
  %12 = alloca ptr, align 8
  %13 = alloca ptr, align 8
  %14 = alloca ptr, align 8
  %15 = alloca ptr, align 8
  store ptr %0, ptr %9, align 8, !tbaa !25
  store ptr %1, ptr %10, align 8, !tbaa !34
  store ptr %2, ptr %11, align 8, !tbaa !50
  store ptr %3, ptr %12, align 8, !tbaa !34
  store ptr %4, ptr %13, align 8, !tbaa !55
  store ptr %5, ptr %14, align 8, !tbaa !55
  store ptr %6, ptr %15, align 8, !tbaa !55
  %16 = load ptr, ptr %13, align 8, !tbaa !55
  %17 = icmp eq ptr %16, null
  br i1 %17, label %18, label %19

18:                                               ; preds = %7
  store i32 -20352, ptr %8, align 4
  br label %28

19:                                               ; preds = %7
  %20 = load ptr, ptr %9, align 8, !tbaa !25
  %21 = load ptr, ptr %10, align 8, !tbaa !34
  %22 = load ptr, ptr %11, align 8, !tbaa !50
  %23 = load ptr, ptr %12, align 8, !tbaa !34
  %24 = load ptr, ptr %13, align 8, !tbaa !55
  %25 = load ptr, ptr %14, align 8, !tbaa !55
  %26 = load ptr, ptr %15, align 8, !tbaa !55
  %27 = call i32 @ecp_mul_restartable_internal(ptr noundef %20, ptr noundef %21, ptr noundef %22, ptr noundef %23, ptr noundef %24, ptr noundef %25, ptr noundef %26)
  store i32 %27, ptr %8, align 4
  br label %28

28:                                               ; preds = %19, %18
  %29 = load i32, ptr %8, align 4
  ret i32 %29
}

; Function Attrs: nounwind uwtable
define hidden i32 @mbedtls_ecp_mul(ptr noundef %0, ptr noundef %1, ptr noundef %2, ptr noundef %3, ptr noundef %4, ptr noundef %5) #0 {
  %7 = alloca ptr, align 8
  %8 = alloca ptr, align 8
  %9 = alloca ptr, align 8
  %10 = alloca ptr, align 8
  %11 = alloca ptr, align 8
  %12 = alloca ptr, align 8
  store ptr %0, ptr %7, align 8, !tbaa !25
  store ptr %1, ptr %8, align 8, !tbaa !34
  store ptr %2, ptr %9, align 8, !tbaa !50
  store ptr %3, ptr %10, align 8, !tbaa !34
  store ptr %4, ptr %11, align 8, !tbaa !55
  store ptr %5, ptr %12, align 8, !tbaa !55
  %13 = load ptr, ptr %7, align 8, !tbaa !25
  %14 = load ptr, ptr %8, align 8, !tbaa !34
  %15 = load ptr, ptr %9, align 8, !tbaa !50
  %16 = load ptr, ptr %10, align 8, !tbaa !34
  %17 = load ptr, ptr %11, align 8, !tbaa !55
  %18 = load ptr, ptr %12, align 8, !tbaa !55
  %19 = call i32 @mbedtls_ecp_mul_restartable(ptr noundef %13, ptr noundef %14, ptr noundef %15, ptr noundef %16, ptr noundef %17, ptr noundef %18, ptr noundef null)
  ret i32 %19
}

; Function Attrs: nounwind uwtable
define internal i32 @self_test_adjust_exponent(ptr noundef %0, ptr noundef %1) #0 {
  %3 = alloca ptr, align 8
  %4 = alloca ptr, align 8
  %5 = alloca i32, align 4
  store ptr %0, ptr %3, align 8, !tbaa !25
  store ptr %1, ptr %4, align 8, !tbaa !50
  call void @llvm.lifetime.start.p0(i64 4, ptr %5) #11
  store i32 0, ptr %5, align 4, !tbaa !3
  %6 = load ptr, ptr %3, align 8, !tbaa !25
  %7 = getelementptr inbounds nuw %struct.mbedtls_ecp_group, ptr %6, i32 0, i32 0
  %8 = load i32, ptr %7, align 8, !tbaa !35
  switch i32 %8, label %9 [
  ]

9:                                                ; preds = %2
  br label %10

10:                                               ; preds = %9
  %11 = load i32, ptr %5, align 4, !tbaa !3
  call void @llvm.lifetime.end.p0(i64 4, ptr %5) #11
  ret i32 %11
}

; Function Attrs: nounwind uwtable
define internal i32 @self_test_point(i32 noundef %0, ptr noundef %1, ptr noundef %2, ptr noundef %3, ptr noundef %4, ptr noundef %5, i64 noundef %6) #0 {
  %8 = alloca i32, align 4
  %9 = alloca ptr, align 8
  %10 = alloca ptr, align 8
  %11 = alloca ptr, align 8
  %12 = alloca ptr, align 8
  %13 = alloca ptr, align 8
  %14 = alloca i64, align 8
  %15 = alloca i32, align 4
  %16 = alloca i64, align 8
  %17 = alloca i64, align 8
  %18 = alloca i64, align 8
  %19 = alloca i64, align 8
  store i32 %0, ptr %8, align 4, !tbaa !3
  store ptr %1, ptr %9, align 8, !tbaa !25
  store ptr %2, ptr %10, align 8, !tbaa !34
  store ptr %3, ptr %11, align 8, !tbaa !50
  store ptr %4, ptr %12, align 8, !tbaa !34
  store ptr %5, ptr %13, align 8, !tbaa !52
  store i64 %6, ptr %14, align 8, !tbaa !7
  call void @llvm.lifetime.start.p0(i64 4, ptr %15) #11
  store i32 0, ptr %15, align 4, !tbaa !3
  call void @llvm.lifetime.start.p0(i64 8, ptr %16) #11
  store i64 0, ptr %16, align 8, !tbaa !7
  call void @llvm.lifetime.start.p0(i64 8, ptr %17) #11
  call void @llvm.lifetime.start.p0(i64 8, ptr %18) #11
  call void @llvm.lifetime.start.p0(i64 8, ptr %19) #11
  store i64 0, ptr @add_count, align 8, !tbaa !7
  store i64 0, ptr @dbl_count, align 8, !tbaa !7
  store i64 0, ptr @mul_count, align 8, !tbaa !7
  br label %20

20:                                               ; preds = %7
  %21 = load ptr, ptr %11, align 8, !tbaa !50
  %22 = load ptr, ptr %13, align 8, !tbaa !52
  %23 = getelementptr inbounds ptr, ptr %22, i64 0
  %24 = load ptr, ptr %23, align 8, !tbaa !22
  %25 = call i32 @mbedtls_mpi_read_string(ptr noundef %21, i32 noundef 16, ptr noundef %24)
  store i32 %25, ptr %15, align 4, !tbaa !3
  %26 = icmp ne i32 %25, 0
  br i1 %26, label %27, label %28

27:                                               ; preds = %20
  br label %108

28:                                               ; preds = %20
  br label %29

29:                                               ; preds = %28
  br label %30

30:                                               ; preds = %29
  br label %31

31:                                               ; preds = %30
  %32 = load ptr, ptr %9, align 8, !tbaa !25
  %33 = load ptr, ptr %11, align 8, !tbaa !50
  %34 = call i32 @self_test_adjust_exponent(ptr noundef %32, ptr noundef %33)
  store i32 %34, ptr %15, align 4, !tbaa !3
  %35 = icmp ne i32 %34, 0
  br i1 %35, label %36, label %37

36:                                               ; preds = %31
  br label %108

37:                                               ; preds = %31
  br label %38

38:                                               ; preds = %37
  br label %39

39:                                               ; preds = %38
  br label %40

40:                                               ; preds = %39
  %41 = load ptr, ptr %9, align 8, !tbaa !25
  %42 = load ptr, ptr %10, align 8, !tbaa !34
  %43 = load ptr, ptr %11, align 8, !tbaa !50
  %44 = load ptr, ptr %12, align 8, !tbaa !34
  %45 = call i32 @mbedtls_ecp_mul(ptr noundef %41, ptr noundef %42, ptr noundef %43, ptr noundef %44, ptr noundef @self_test_rng, ptr noundef null)
  store i32 %45, ptr %15, align 4, !tbaa !3
  %46 = icmp ne i32 %45, 0
  br i1 %46, label %47, label %48

47:                                               ; preds = %40
  br label %108

48:                                               ; preds = %40
  br label %49

49:                                               ; preds = %48
  br label %50

50:                                               ; preds = %49
  store i64 1, ptr %16, align 8, !tbaa !7
  br label %51

51:                                               ; preds = %104, %50
  %52 = load i64, ptr %16, align 8, !tbaa !7
  %53 = load i64, ptr %14, align 8, !tbaa !7
  %54 = icmp ult i64 %52, %53
  br i1 %54, label %55, label %107

55:                                               ; preds = %51
  %56 = load i64, ptr @add_count, align 8, !tbaa !7
  store i64 %56, ptr %17, align 8, !tbaa !7
  %57 = load i64, ptr @dbl_count, align 8, !tbaa !7
  store i64 %57, ptr %18, align 8, !tbaa !7
  %58 = load i64, ptr @mul_count, align 8, !tbaa !7
  store i64 %58, ptr %19, align 8, !tbaa !7
  store i64 0, ptr @add_count, align 8, !tbaa !7
  store i64 0, ptr @dbl_count, align 8, !tbaa !7
  store i64 0, ptr @mul_count, align 8, !tbaa !7
  br label %59

59:                                               ; preds = %55
  %60 = load ptr, ptr %11, align 8, !tbaa !50
  %61 = load ptr, ptr %13, align 8, !tbaa !52
  %62 = load i64, ptr %16, align 8, !tbaa !7
  %63 = getelementptr inbounds nuw ptr, ptr %61, i64 %62
  %64 = load ptr, ptr %63, align 8, !tbaa !22
  %65 = call i32 @mbedtls_mpi_read_string(ptr noundef %60, i32 noundef 16, ptr noundef %64)
  store i32 %65, ptr %15, align 4, !tbaa !3
  %66 = icmp ne i32 %65, 0
  br i1 %66, label %67, label %68

67:                                               ; preds = %59
  br label %108

68:                                               ; preds = %59
  br label %69

69:                                               ; preds = %68
  br label %70

70:                                               ; preds = %69
  br label %71

71:                                               ; preds = %70
  %72 = load ptr, ptr %9, align 8, !tbaa !25
  %73 = load ptr, ptr %11, align 8, !tbaa !50
  %74 = call i32 @self_test_adjust_exponent(ptr noundef %72, ptr noundef %73)
  store i32 %74, ptr %15, align 4, !tbaa !3
  %75 = icmp ne i32 %74, 0
  br i1 %75, label %76, label %77

76:                                               ; preds = %71
  br label %108

77:                                               ; preds = %71
  br label %78

78:                                               ; preds = %77
  br label %79

79:                                               ; preds = %78
  br label %80

80:                                               ; preds = %79
  %81 = load ptr, ptr %9, align 8, !tbaa !25
  %82 = load ptr, ptr %10, align 8, !tbaa !34
  %83 = load ptr, ptr %11, align 8, !tbaa !50
  %84 = load ptr, ptr %12, align 8, !tbaa !34
  %85 = call i32 @mbedtls_ecp_mul(ptr noundef %81, ptr noundef %82, ptr noundef %83, ptr noundef %84, ptr noundef @self_test_rng, ptr noundef null)
  store i32 %85, ptr %15, align 4, !tbaa !3
  %86 = icmp ne i32 %85, 0
  br i1 %86, label %87, label %88

87:                                               ; preds = %80
  br label %108

88:                                               ; preds = %80
  br label %89

89:                                               ; preds = %88
  br label %90

90:                                               ; preds = %89
  %91 = load i64, ptr @add_count, align 8, !tbaa !7
  %92 = load i64, ptr %17, align 8, !tbaa !7
  %93 = icmp ne i64 %91, %92
  br i1 %93, label %102, label %94

94:                                               ; preds = %90
  %95 = load i64, ptr @dbl_count, align 8, !tbaa !7
  %96 = load i64, ptr %18, align 8, !tbaa !7
  %97 = icmp ne i64 %95, %96
  br i1 %97, label %102, label %98

98:                                               ; preds = %94
  %99 = load i64, ptr @mul_count, align 8, !tbaa !7
  %100 = load i64, ptr %19, align 8, !tbaa !7
  %101 = icmp ne i64 %99, %100
  br i1 %101, label %102, label %103

102:                                              ; preds = %98, %94, %90
  store i32 1, ptr %15, align 4, !tbaa !3
  br label %107

103:                                              ; preds = %98
  br label %104

104:                                              ; preds = %103
  %105 = load i64, ptr %16, align 8, !tbaa !7
  %106 = add i64 %105, 1
  store i64 %106, ptr %16, align 8, !tbaa !7
  br label %51, !llvm.loop !64

107:                                              ; preds = %102, %51
  br label %108

108:                                              ; preds = %107, %87, %76, %67, %47, %36, %27
  %109 = load i32, ptr %8, align 4, !tbaa !3
  %110 = icmp ne i32 %109, 0
  br i1 %110, label %111, label %121

111:                                              ; preds = %108
  %112 = load i32, ptr %15, align 4, !tbaa !3
  %113 = icmp ne i32 %112, 0
  br i1 %113, label %114, label %118

114:                                              ; preds = %111
  %115 = load i64, ptr %16, align 8, !tbaa !7
  %116 = trunc i64 %115 to i32
  %117 = call i32 (ptr, ...) @printf(ptr noundef @.str.32, i32 noundef %116)
  br label %120

118:                                              ; preds = %111
  %119 = call i32 (ptr, ...) @printf(ptr noundef @.str.33)
  br label %120

120:                                              ; preds = %118, %114
  br label %121

121:                                              ; preds = %120, %108
  %122 = load i32, ptr %15, align 4, !tbaa !3
  call void @llvm.lifetime.end.p0(i64 8, ptr %19) #11
  call void @llvm.lifetime.end.p0(i64 8, ptr %18) #11
  call void @llvm.lifetime.end.p0(i64 8, ptr %17) #11
  call void @llvm.lifetime.end.p0(i64 8, ptr %16) #11
  call void @llvm.lifetime.end.p0(i64 4, ptr %15) #11
  ret i32 %122
}