; Function Attrs: nounwind uwtable
define internal fastcc i32 @self_test_point(i32 noundef %0, ptr noundef nonnull %1, ptr noundef nonnull %2, ptr noundef nonnull %3, ptr noundef nonnull %4, ptr noundef nonnull readonly captures(none) %5) unnamed_addr #7 {
  store i64 0, ptr @add_count, align 8, !tbaa !33
  store i64 0, ptr @dbl_count, align 8, !tbaa !33
  store i64 0, ptr @mul_count, align 8, !tbaa !33
  %7 = load ptr, ptr %5, align 8, !tbaa !35
  %8 = tail call i32 @mbedtls_mpi_read_string(ptr noundef nonnull %3, i32 noundef 16, ptr noundef %7) #21
  %.not = icmp eq i32 %8, 0
  br i1 %.not, label %9, label %.loopexit

9:                                                ; preds = %6
  %10 = tail call fastcc i32 @ecp_mul_restartable_internal(ptr noundef nonnull %1, ptr noundef nonnull %2, ptr noundef nonnull %3, ptr noundef nonnull %4, ptr noundef nonnull @self_test_rng, ptr noundef null)
  %.not36 = icmp eq i32 %10, 0
  br i1 %.not36, label %.preheader.preheader, label %.loopexit

.preheader.preheader:                             ; preds = %9
  %.pre = load i64, ptr @add_count, align 8, !tbaa !33
  %.pre60 = load i64, ptr @dbl_count, align 8, !tbaa !33
  %.pre61 = load i64, ptr @mul_count, align 8, !tbaa !33
  br label %.preheader

.preheader:                                       ; preds = %.preheader.preheader, %20
  %.12758 = phi i64 [ %21, %20 ], [ 1, %.preheader.preheader ]
  store i64 0, ptr @add_count, align 8, !tbaa !33
  store i64 0, ptr @dbl_count, align 8, !tbaa !33
  store i64 0, ptr @mul_count, align 8, !tbaa !33
  %11 = getelementptr inbounds nuw ptr, ptr %5, i64 %.12758
  %12 = load ptr, ptr %11, align 8, !tbaa !35
  %13 = tail call i32 @mbedtls_mpi_read_string(ptr noundef nonnull %3, i32 noundef 16, ptr noundef %12) #21
  %.not37 = icmp eq i32 %13, 0
  br i1 %.not37, label %14, label %.loopexit

14:                                               ; preds = %.preheader
  %15 = tail call fastcc i32 @ecp_mul_restartable_internal(ptr noundef nonnull %1, ptr noundef nonnull %2, ptr noundef nonnull %3, ptr noundef nonnull %4, ptr noundef nonnull @self_test_rng, ptr noundef null)
  %.not38 = icmp eq i32 %15, 0
  br i1 %.not38, label %16, label %.loopexit

16:                                               ; preds = %14
  %17 = load i64, ptr @add_count, align 8, !tbaa !33
  %.not39 = icmp eq i64 %17, %.pre
  %18 = load i64, ptr @dbl_count, align 8
  %.not40 = icmp eq i64 %18, %.pre60
  %or.cond = select i1 %.not39, i1 %.not40, i1 false
  %19 = load i64, ptr @mul_count, align 8
  %.not41 = icmp eq i64 %19, %.pre61
  %or.cond44 = select i1 %or.cond, i1 %.not41, i1 false
  br i1 %or.cond44, label %20, label %.thread

20:                                               ; preds = %16
  %21 = add nuw nsw i64 %.12758, 1
  %exitcond.not = icmp eq i64 %21, 6
  br i1 %exitcond.not, label %.loopexit.thread, label %.preheader, !llvm.loop !61

.loopexit:                                        ; preds = %14, %.preheader, %9, %6
  %.026 = phi i64 [ 0, %6 ], [ 0, %9 ], [ %.12758, %.preheader ], [ %.12758, %14 ]
  %.0 = phi i32 [ %8, %6 ], [ %10, %9 ], [ %15, %14 ], [ %13, %.preheader ]
  %.not42 = icmp eq i32 %0, 0
  br i1 %.not42, label %25, label %.thread51

.loopexit.thread:                                 ; preds = %20
  %.not4264 = icmp eq i32 %0, 0
  br i1 %.not4264, label %25, label %24

.thread:                                          ; preds = %16
  %.not4247 = icmp eq i32 %0, 0
  br i1 %.not4247, label %25, label %.thread51

.thread51:                                        ; preds = %.loopexit, %.thread
  %.0264856 = phi i64 [ %.12758, %.thread ], [ %.026, %.loopexit ]
  %.04955 = phi i32 [ 1, %.thread ], [ %.0, %.loopexit ]
  %22 = trunc i64 %.0264856 to i32
  %23 = tail call i32 (ptr, ...) @printf(ptr noundef nonnull dereferenceable(1) @.str.32, i32 noundef %22)
  br label %25

24:                                               ; preds = %.loopexit.thread
  %puts = tail call i32 @puts(ptr nonnull dereferenceable(1) @str)
  br label %25

25:                                               ; preds = %.loopexit.thread, %.thread, %.thread51, %24, %.loopexit
  %.050 = phi i32 [ 1, %.thread ], [ %.04955, %.thread51 ], [ 0, %24 ], [ %.0, %.loopexit ], [ 0, %.loopexit.thread ]
  ret i32 %.050
}